; Function Attrs: nounwind uwtable
define dso_local range(i32 -1, 1) i32 @PyRun_AnyFileEx(ptr noundef %0, ptr noundef %1, i32 noundef %2) local_unnamed_addr #0 {
  %.not.i = icmp eq ptr %1, null
  br i1 %.not.i, label %.thread.i, label %5

.thread.i:                                        ; preds = %3
  %4 = tail call i32 @_PyRun_AnyFileObject(ptr noundef %0, ptr noundef null, i32 noundef %2, ptr noundef null)
  br label %PyRun_AnyFileExFlags.exit

5:                                                ; preds = %3
  %6 = tail call ptr @PyUnicode_DecodeFSDefault(ptr noundef nonnull %1) #8
  %7 = icmp eq ptr %6, null
  br i1 %7, label %8, label %11

8:                                                ; preds = %5
  %9 = tail call align 8 ptr @llvm.threadlocal.address.p0(ptr align 8 @_Py_tss_tstate)
  %10 = load ptr, ptr %9, align 8, !tbaa !4
  tail call fastcc void @_PyErr_PrintEx(ptr noundef %10, i32 noundef 1)
  br label %PyRun_AnyFileExFlags.exit

11:                                               ; preds = %5
  %12 = tail call i32 @_Py_FdIsInteractive(ptr noundef %0, ptr noundef nonnull %6) #8
  %.not.i2 = icmp eq i32 %12, 0
  br i1 %.not.i2, label %17, label %13

13:                                               ; preds = %11
  %14 = tail call i32 @_PyRun_InteractiveLoopObject(ptr noundef %0, ptr noundef nonnull %6, ptr noundef null)
  %.not21.i = icmp eq i32 %2, 0
  br i1 %.not21.i, label %_PyRun_AnyFileObject.exit, label %15

15:                                               ; preds = %13
  %16 = tail call i32 @fclose(ptr noundef %0)
  br label %_PyRun_AnyFileObject.exit

17:                                               ; preds = %11
  %18 = tail call i32 @_PyRun_SimpleFileObject(ptr noundef %0, ptr noundef nonnull %6, i32 noundef %2, ptr noundef null)
  br label %_PyRun_AnyFileObject.exit

_PyRun_AnyFileObject.exit:                        ; preds = %13, %15, %17
  %.0.i3 = phi i32 [ %14, %15 ], [ %14, %13 ], [ %18, %17 ]
  %19 = load i32, ptr %6, align 8, !tbaa !9
  %.not.i.i.i = icmp sgt i32 %19, -1
  br i1 %.not.i.i.i, label %20, label %PyRun_AnyFileExFlags.exit

20:                                               ; preds = %_PyRun_AnyFileObject.exit
  %21 = add nsw i32 %19, -1
  store i32 %21, ptr %6, align 8, !tbaa !9
  %22 = icmp eq i32 %21, 0
  br i1 %22, label %23, label %PyRun_AnyFileExFlags.exit

23:                                               ; preds = %20
  tail call void @_Py_Dealloc(ptr noundef nonnull %6) #8
  br label %PyRun_AnyFileExFlags.exit

PyRun_AnyFileExFlags.exit:                        ; preds = %.thread.i, %8, %_PyRun_AnyFileObject.exit, %20, %23
  %.0.i = phi i32 [ -1, %8 ], [ %4, %.thread.i ], [ %.0.i3, %_PyRun_AnyFileObject.exit ], [ %.0.i3, %20 ], [ %.0.i3, %23 ]
  ret i32 %.0.i
}